
Certificate:
    Data:
        Version: 3 (0x2)
        Serial Number:
            ae:bb:6e:f7:8f:ba:af:26
        Signature Algorithm: sha1WithRSAEncryption
        Issuer: CN=Netflix NCCP SIAB Test CA, ST=California, C=US/emailAddress=rmavinkurve@netflix.com, O=EDS
        Validity
            Not Before: Apr 24 00:37:01 2008 GMT
            Not After : Apr 23 00:37:01 2013 GMT
        Subject: CN=Netflix NCCP SIAB Test CA, ST=California, C=US/emailAddress=rmavinkurve@netflix.com, O=EDS
        Subject Public Key Info:
            Public Key Algorithm: rsaEncryption
            RSA Public Key: (2048 bit)
                Modulus (2048 bit):
                    00:c3:5a:5b:82:e9:2d:ee:ab:cf:00:3c:d7:92:76:
                    cd:2f:9e:a8:1d:b8:26:68:fa:3c:4c:31:42:7e:45:
                    67:9e:0d:fc:34:29:30:9e:7f:d4:3e:8f:3e:58:44:
                    7f:e4:28:51:02:21:84:de:25:40:23:9f:0e:41:c9:
                    51:40:01:90:04:b9:11:ae:0b:8f:5b:05:69:22:a6:
                    95:42:4f:0c:66:50:b7:4f:b5:33:35:5b:68:dd:57:
                    75:d6:69:8f:65:3d:b4:12:0d:81:c6:83:33:10:0b:
                    96:d5:9f:ad:e6:bb:39:7e:19:7b:c4:0b:12:c1:c3:
                    3f:dd:88:ed:51:e3:d1:f3:1d:4d:a3:72:c8:d6:9d:
                    5b:74:68:9d:cd:47:dc:ca:42:ba:ce:7e:79:f7:7e:
                    49:9e:9e:e8:e6:37:b0:7b:d1:dc:a7:2b:fb:77:06:
                    21:ca:8a:22:ce:27:49:62:76:46:70:9a:34:d8:f5:
                    a3:d2:c8:b1:01:6b:fb:7c:46:14:57:d2:aa:53:14:
                    88:3c:67:ad:9f:dc:6d:c1:6b:e1:40:23:d3:0b:4c:
                    e7:85:a3:e9:9f:58:1c:bd:48:8c:8a:7a:5a:5b:3b:
                    50:fc:a2:5c:08:19:04:dd:fa:4c:94:69:f7:9f:26:
                    47:65:2c:a5:31:32:f1:31:8c:c2:76:18:e4:6f:ec:
                    e9:9f
                Exponent: 65537 (0x10001)
        X509v3 extensions:
            X509v3 Basic Constraints: 
                CA:TRUE
    Signature Algorithm: sha1WithRSAEncryption
        2b:c1:14:cf:b8:66:ec:58:4e:ed:e5:7d:13:33:b9:0f:fb:34:
        e6:f3:9e:ab:b4:f3:eb:35:5b:5c:13:38:c6:ec:60:fa:e8:5a:
        80:33:0e:76:58:fb:7c:c2:c5:e0:9e:83:93:f2:49:e6:33:9b:
        d0:ef:ce:a0:c0:5f:9b:d4:4e:12:fa:6c:46:7e:37:b1:08:61:
        2a:96:1e:ec:58:0e:0c:8c:5f:1e:d3:4a:22:bb:88:08:a9:96:
        08:dc:85:92:e4:c4:39:c7:2b:7e:8f:a2:10:6c:fc:de:aa:b7:
        30:5a:8a:10:24:33:02:f2:ad:47:b7:5d:7d:11:fa:c0:f3:da:
        0f:d1:99:56:d7:9e:ff:13:d5:c5:a0:30:49:9a:6b:f2:f0:47:
        b2:5c:18:fe:d2:ea:01:5d:28:ae:c0:c1:2c:f7:37:d5:8c:a1:
        88:62:48:8e:ca:bd:ee:e5:f2:40:40:42:33:4a:1e:48:f3:93:
        13:06:af:60:99:11:3f:4d:4c:81:18:e4:7e:ca:9a:e1:47:b4:
        fd:bb:3a:89:0e:95:bf:89:b4:47:5f:74:61:ce:5c:03:92:40:
        80:f3:73:c9:57:a4:3b:31:4b:3e:80:e8:31:4d:82:01:97:a9:
        fe:fb:9d:ec:19:ff:5d:03:19:06:fe:a3:93:8b:1c:82:84:77:
        43:7b:9f:48
-----BEGIN CERTIFICATE-----
MIIDjTCCAnWgAwIBAgIJAK67bvePuq8mMA0GCSqGSIb3DQEBBQUAMHwxIjAgBgNV
BAMTGU5ldGZsaXggTkNDUCBTSUFCIFRlc3QgQ0ExEzARBgNVBAgTCkNhbGlmb3Ju
aWExCzAJBgNVBAYTAlVTMSYwJAYJKoZIhvcNAQkBFhdybWF2aW5rdXJ2ZUBuZXRm
bGl4LmNvbTEMMAoGA1UEChMDRURTMCAXDTA4MDQyNDAwMzcwMVoYDzIwMTMwNDIz
MDAzNzAxWjB8MSIwIAYDVQQDExlOZXRmbGl4IE5DQ1AgU0lBQiBUZXN0IENBMRMw
EQYDVQQIEwpDYWxpZm9ybmlhMQswCQYDVQQGEwJVUzEmMCQGCSqGSIb3DQEJARYX
cm1hdmlua3VydmVAbmV0ZmxpeC5jb20xDDAKBgNVBAoTA0VEUzCCASIwDQYJKoZI
hvcNAQEBBQADggEPADCCAQoCggEBAMNaW4LpLe6rzwA815J2zS+eqB24Jmj6PEwx
Qn5FZ54N/DQpMJ5/1D6PPlhEf+QoUQIhhN4lQCOfDkHJUUABkAS5Ea4Lj1sFaSKm
lUJPDGZQt0+1MzVbaN1XddZpj2U9tBINgcaDMxALltWfrea7OX4Ze8QLEsHDP92I
7VHj0fMdTaNyyNadW3Ronc1H3MpCus5+efd+SZ6e6OY3sHvR3Kcr+3cGIcqKIs4n
SWJ2RnCaNNj1o9LIsQFr+3xGFFfSqlMUiDxnrZ/cbcFr4UAj0wtM54Wj6Z9YHL1I
jIp6Wls7UPyiXAgZBN36TJRp958mR2UspTEy8TGMwnYY5G/s6Z8CAwEAAaMQMA4w
DAYDVR0TBAUwAwEB/zANBgkqhkiG9w0BAQUFAAOCAQEAK8EUz7hm7FhO7eV9EzO5
D/s05vOeq7Tz6zVbXBM4xuxg+uhagDMOdlj7fMLF4J6Dk/JJ5jOb0O/OoMBfm9RO
EvpsRn43sQhhKpYe7FgODIxfHtNKIruICKmWCNyFkuTEOccrfo+iEGz83qq3MFqK
ECQzAvKtR7ddfRH6wPPaD9GZVtee/xPVxaAwSZpr8vBHslwY/tLqAV0orsDBLPc3
1YyhiGJIjsq97uXyQEBCM0oeSPOTEwavYJkRP01MgRjkfsqa4Ue0/bs6iQ6Vv4m0
R190Yc5cA5JAgPNzyVekOzFLPoDoMU2CAZep/vud7Bn/XQMZBv6jk4scgoR3Q3uf
SA==
-----END CERTIFICATE-----

Certificate:
    Data:
        Version: 3 (0x2)
        Serial Number:
            e4:38:af:db:c7:0d:a3:a5
        Signature Algorithm: sha1WithRSAEncryption
        Issuer: CN=PPD Test Certificate Authority (2011), O=Netflix Inc, OU=Electronic Delivery, ST=California, C=US, L=Los Gatos
        Validity
            Not Before: Jan  1 08:30:22 2001 GMT
            Not After : Apr  8 08:30:22 2029 GMT
        Subject: CN=PPD Test Certificate Authority (2011), O=Netflix Inc, OU=Electronic Delivery, ST=California, C=US, L=Los Gatos
        Subject Public Key Info:
            Public Key Algorithm: rsaEncryption
            RSA Public Key: (2048 bit)
                Modulus (2048 bit):
                    00:a2:36:18:20:9f:14:17:6c:01:38:98:f3:77:1a:
                    90:bf:c2:0c:dd:7a:9f:72:61:31:1a:d2:a8:ba:e1:
                    4c:81:73:22:23:5b:69:9f:cd:a1:6b:8b:66:8d:31:
                    58:b3:ee:12:55:7d:59:53:7c:b0:de:fd:ad:d0:47:
                    f2:55:35:64:92:44:c7:b2:8b:54:ec:f9:f2:64:db:
                    cb:53:ac:46:e8:e0:cc:f3:f3:cf:ae:8b:bd:9d:03:
                    1e:7e:7b:bd:4f:67:26:b4:54:9c:22:da:ca:54:9f:
                    f0:8f:f0:7a:af:06:87:02:f5:36:30:d0:e3:6e:a4:
                    6c:4f:e9:37:f0:4a:a8:3d:a5:e1:7d:86:54:11:a4:
                    ba:56:c2:6f:6c:38:bc:a2:ca:00:4a:3f:b3:94:fc:
                    c4:16:10:5b:b4:e7:01:a5:61:43:0d:7b:31:33:5c:
                    9a:6b:63:59:31:f1:d0:51:7c:32:33:86:fe:5a:72:
                    66:93:34:e4:ee:e9:ac:7d:98:e7:47:5f:12:79:fe:
                    45:80:29:80:7a:7f:36:ac:cf:55:56:1f:5e:34:e3:
                    f0:5c:2f:f2:98:f0:3d:95:8d:1b:bd:81:c6:d3:4b:
                    21:51:5c:48:cf:8b:78:9e:05:61:2f:c2:a0:60:04:
                    71:8f:cd:3d:38:f6:66:48:2e:82:1a:e5:24:58:ba:
                    63:2f
                Exponent: 65537 (0x10001)
        X509v3 extensions:
            X509v3 Basic Constraints: critical
                CA:TRUE
            X509v3 Key Usage: critical
                Digital Signature, Certificate Sign, CRL Sign
            X509v3 Subject Key Identifier: 
                5E:AF:8F:56:FE:B1:78:25:81:53:29:EB:DD:A7:51:20:34:1F:14:FC
    Signature Algorithm: sha1WithRSAEncryption
        6c:47:0e:3c:c8:4d:9f:ac:5c:86:eb:de:02:d5:bd:be:e2:e4:
        64:31:9a:ae:c4:02:9f:94:10:23:c6:45:61:09:30:f4:1d:62:
        47:e0:2c:6f:a2:7c:5a:96:68:b0:dc:5d:f4:f2:de:a4:67:cc:
        f7:31:30:39:13:3e:5e:13:4e:8b:d2:12:cd:d2:ca:83:57:b6:
        d3:b5:40:67:c0:64:02:fe:26:16:78:e0:79:26:d8:0d:8c:ff:
        e3:a2:7d:0f:c6:db:93:1c:59:0c:e7:81:70:05:20:87:42:09:
        b7:95:95:a9:a8:87:6b:cb:15:85:25:94:85:da:43:f8:0a:e4:
        9c:fe:fd:00:a7:f6:91:63:ba:ad:40:08:fd:93:f2:20:72:2a:
        a6:48:c9:da:86:0e:c3:89:91:40:6a:30:78:45:58:72:ce:e6:
        59:0c:1b:79:a8:68:33:da:a2:c1:39:8e:9e:04:a2:59:a9:7c:
        ac:dd:3e:04:5d:5a:f9:8d:b8:53:db:56:18:bb:9d:3a:c3:10:
        50:aa:ce:fd:92:4e:15:7e:17:14:37:4f:00:45:32:2b:8c:33:
        b3:da:cc:1c:df:19:16:c7:4b:73:e0:13:bd:e6:dc:e6:94:1f:
        63:34:38:82:68:6b:20:b2:38:b2:7d:97:39:59:27:ff:a7:60:
        b1:d4:90:d9
-----BEGIN CERTIFICATE-----
MIID+zCCAuOgAwIBAgIJAOQ4r9vHDaOlMA0GCSqGSIb3DQEBBQUAMIGaMS4wLAYD
VQQDEyVQUEQgVGVzdCBDZXJ0aWZpY2F0ZSBBdXRob3JpdHkgKDIwMTEpMRQwEgYD
VQQKEwtOZXRmbGl4IEluYzEcMBoGA1UECxMTRWxlY3Ryb25pYyBEZWxpdmVyeTET
MBEGA1UECBMKQ2FsaWZvcm5pYTELMAkGA1UEBhMCVVMxEjAQBgNVBAcTCUxvcyBH
YXRvczAeFw0wMTAxMDEwODMwMjJaFw0yOTA0MDgwODMwMjJaMIGaMS4wLAYDVQQD
EyVQUEQgVGVzdCBDZXJ0aWZpY2F0ZSBBdXRob3JpdHkgKDIwMTEpMRQwEgYDVQQK
EwtOZXRmbGl4IEluYzEcMBoGA1UECxMTRWxlY3Ryb25pYyBEZWxpdmVyeTETMBEG
A1UECBMKQ2FsaWZvcm5pYTELMAkGA1UEBhMCVVMxEjAQBgNVBAcTCUxvcyBHYXRv
czCCASIwDQYJKoZIhvcNAQEBBQADggEPADCCAQoCggEBAKI2GCCfFBdsATiY83ca
kL/CDN16n3JhMRrSqLrhTIFzIiNbaZ/NoWuLZo0xWLPuElV9WVN8sN79rdBH8lU1
ZJJEx7KLVOz58mTby1OsRujgzPPzz66LvZ0DHn57vU9nJrRUnCLaylSf8I/weq8G
hwL1NjDQ426kbE/pN/BKqD2l4X2GVBGkulbCb2w4vKLKAEo/s5T8xBYQW7TnAaVh
Qw17MTNcmmtjWTHx0FF8MjOG/lpyZpM05O7prH2Y50dfEnn+RYApgHp/NqzPVVYf
XjTj8Fwv8pjwPZWNG72BxtNLIVFcSM+LeJ4FYS/CoGAEcY/NPTj2ZkgughrlJFi6
Yy8CAwEAAaNCMEAwDwYDVR0TAQH/BAUwAwEB/zAOBgNVHQ8BAf8EBAMCAYYwHQYD
VR0OBBYEFF6vj1b+sXglgVMp692nUSA0HxT8MA0GCSqGSIb3DQEBBQUAA4IBAQBs
Rw48yE2frFyG694C1b2+4uRkMZquxAKflBAjxkVhCTD0HWJH4Cxvonxalmiw3F30
8t6kZ8z3MTA5Ez5eE06L0hLN0sqDV7bTtUBnwGQC/iYWeOB5JtgNjP/jon0PxtuT
HFkM54FwBSCHQgm3lZWpqIdryxWFJZSF2kP4CuSc/v0Ap/aRY7qtQAj9k/Igciqm
SMnahg7DiZFAajB4RVhyzuZZDBt5qGgz2qLBOY6eBKJZqXys3T4EXVr5jbhT21YY
u506wxBQqs79kk4VfhcUN08ARTIrjDOz2swc3xkWx0tz4BO95tzmlB9jNDiCaGsg
sjiyfZc5WSf/p2Cx1JDZ
-----END CERTIFICATE-----
